; Function Attrs: nounwind uwtable
define internal ptr @ga_dir(ptr noundef readonly captures(none) %0, ptr readnone captures(none) %1) #0 {
  %3 = getelementptr inbounds nuw i8, ptr %0, i64 16
  %4 = load ptr, ptr %3, align 8, !tbaa !33
  %5 = tail call ptr @PyObject_Dir(ptr noundef %4) #5
  %6 = icmp eq ptr %5, null
  br i1 %6, label %Py_DECREF.exit34, label %.preheader

.preheader:                                       ; preds = %2, %24
  %7 = phi ptr [ %26, %24 ], [ @.str.14, %2 ]
  %.02047 = phi ptr [ %25, %24 ], [ @attr_exceptions, %2 ]
  %8 = tail call ptr @PyUnicode_FromString(ptr noundef nonnull %7) #5
  %9 = icmp eq ptr %8, null
  br i1 %9, label %28, label %10

10:                                               ; preds = %.preheader
  %11 = tail call i32 @PySequence_Contains(ptr noundef nonnull %5, ptr noundef nonnull %8) #5
  %12 = icmp slt i32 %11, 0
  br i1 %12, label %28, label %13

13:                                               ; preds = %10
  %14 = icmp eq i32 %11, 0
  br i1 %14, label %15, label %18

15:                                               ; preds = %13
  %16 = tail call i32 @PyList_Append(ptr noundef nonnull %5, ptr noundef nonnull %8) #5
  %17 = icmp slt i32 %16, 0
  br i1 %17, label %28, label %18

18:                                               ; preds = %15, %13
  %19 = load i32, ptr %8, align 8, !tbaa !23
  %.not.i33 = icmp sgt i32 %19, -1
  br i1 %.not.i33, label %20, label %24

20:                                               ; preds = %18
  %21 = add nsw i32 %19, -1
  store i32 %21, ptr %8, align 8, !tbaa !23
  %22 = icmp eq i32 %21, 0
  br i1 %22, label %23, label %24

23:                                               ; preds = %20
  tail call void @_Py_Dealloc(ptr noundef nonnull %8) #5
  br label %24

24:                                               ; preds = %18, %20, %23
  %25 = getelementptr i8, ptr %.02047, i64 8
  %26 = load ptr, ptr %25, align 8, !tbaa !54
  %27 = icmp eq ptr %26, null
  br i1 %27, label %Py_DECREF.exit34, label %.preheader

28:                                               ; preds = %.preheader, %10, %15
  %29 = load i32, ptr %5, align 8, !tbaa !23
  %.not.i = icmp sgt i32 %29, -1
  br i1 %.not.i, label %30, label %Py_DECREF.exit

30:                                               ; preds = %28
  %31 = add nsw i32 %29, -1
  store i32 %31, ptr %5, align 8, !tbaa !23
  %32 = icmp eq i32 %31, 0
  br i1 %32, label %33, label %Py_DECREF.exit

33:                                               ; preds = %30
  tail call void @_Py_Dealloc(ptr noundef nonnull %5) #5
  br label %Py_DECREF.exit

Py_DECREF.exit:                                   ; preds = %28, %30, %33
  %.not.i36 = icmp eq ptr %8, null
  br i1 %.not.i36, label %Py_DECREF.exit34, label %34

34:                                               ; preds = %Py_DECREF.exit
  %35 = load i32, ptr %8, align 8, !tbaa !23
  %.not.i.i = icmp sgt i32 %35, -1
  br i1 %.not.i.i, label %36, label %Py_DECREF.exit34

36:                                               ; preds = %34
  %37 = add nsw i32 %35, -1
  store i32 %37, ptr %8, align 8, !tbaa !23
  %38 = icmp eq i32 %37, 0
  br i1 %38, label %39, label %Py_DECREF.exit34

39:                                               ; preds = %36
  tail call void @_Py_Dealloc(ptr noundef nonnull %8) #5
  br label %Py_DECREF.exit34

Py_DECREF.exit34:                                 ; preds = %24, %39, %36, %34, %Py_DECREF.exit, %2
  %.0 = phi ptr [ null, %2 ], [ null, %Py_DECREF.exit ], [ null, %34 ], [ null, %36 ], [ null, %39 ], [ %5, %24 ]
  ret ptr %.0
}